; Function Attrs: nounwind uwtable
define void @_efree_896(ptr noundef %0) local_unnamed_addr #0 {
  %2 = load ptr, ptr @alloc_globals.0, align 8
  %3 = load i32, ptr %2, align 8
  %.not = icmp eq i32 %3, 0
  br i1 %.not, label %7, label %4

4:                                                ; preds = %1
  %5 = getelementptr inbounds i8, ptr %2, i64 368
  %6 = load ptr, ptr %5, align 8
  tail call void %6(ptr noundef %0) #35
  br label %19

7:                                                ; preds = %1
  %8 = ptrtoint ptr %0 to i64
  %9 = and i64 %8, -2097152
  %10 = inttoptr i64 %9 to ptr
  %11 = load ptr, ptr %10, align 2097152
  %.not12 = icmp eq ptr %11, %2
  br i1 %.not12, label %13, label %12

12:                                               ; preds = %7
  tail call fastcc void @zend_mm_panic() #34
  unreachable

13:                                               ; preds = %7
  %14 = getelementptr inbounds i8, ptr %2, i64 16
  %15 = load i64, ptr %14, align 8
  %16 = add i64 %15, -896
  store i64 %16, ptr %14, align 8
  %17 = getelementptr inbounds i8, ptr %2, i64 208
  %18 = load ptr, ptr %17, align 8
  store ptr %18, ptr %0, align 8
  store ptr %0, ptr %17, align 8
  br label %19

19:                                               ; preds = %13, %4
  ret void
}